; ModuleID = 'source-C-CXX/15/666.c'
source_filename = "source-C-CXX/15/666.c"
target datalayout = "e-m:e-p270:32:32-p271:32:32-p272:64:64-i64:64-f80:128-n8:16:32:64-S128"
target triple = "x86_64-pc-linux-gnu"

@.str = private unnamed_addr constant [3 x i8] c"%d\00", align 1
@.str.1 = private unnamed_addr constant [6 x i8] c"00001\00", align 1
@.str.3 = private unnamed_addr constant [4 x i8] c"%d\0A\00", align 1

; Function Attrs: nofree nounwind sspstrong uwtable
define dso_local void @main() local_unnamed_addr #0 {
  %1 = alloca i32, align 4
  %2 = bitcast i32* %1 to i8*
  call void @llvm.lifetime.start.p0i8(i64 4, i8* nonnull %2) #4
  %3 = call i32 (i8*, ...) @__isoc99_scanf(i8* getelementptr inbounds ([3 x i8], [3 x i8]* @.str, i64 0, i64 0), i32* nonnull %1)
  %4 = load i32, i32* %1, align 4, !tbaa !5
  %5 = icmp eq i32 %4, 10000
  br i1 %5, label %6, label %8

6:                                                ; preds = %0
  %7 = call i32 (i8*, ...) @printf(i8* nonnull dereferenceable(1) getelementptr inbounds ([6 x i8], [6 x i8]* @.str.1, i64 0, i64 0))
  br label %38

8:                                                ; preds = %0, %8
  %9 = phi i32 [ %14, %8 ], [ %4, %0 ]
  %10 = phi i32 [ %13, %8 ], [ 0, %0 ]
  %11 = mul nsw i32 %10, 10
  %12 = srem i32 %9, 10
  %13 = add nsw i32 %12, %11
  %14 = sdiv i32 %9, 10
  %15 = add i32 %9, 9
  %16 = icmp ult i32 %15, 19
  br i1 %16, label %17, label %8, !llvm.loop !9

17:                                               ; preds = %8
  store i32 %14, i32* %1, align 4, !tbaa !5
  %18 = srem i32 %4, 10
  %19 = icmp eq i32 %18, 0
  %20 = icmp ne i32 %4, 0
  %21 = and i1 %20, %19
  br i1 %21, label %22, label %24

22:                                               ; preds = %17
  %23 = call i32 @putchar(i32 48)
  br label %24

24:                                               ; preds = %22, %17
  %25 = srem i32 %4, 100
  %26 = icmp eq i32 %25, 0
  %27 = and i1 %20, %26
  br i1 %27, label %28, label %30

28:                                               ; preds = %24
  %29 = call i32 @putchar(i32 48)
  br label %30

30:                                               ; preds = %28, %24
  %31 = srem i32 %4, 1000
  %32 = icmp eq i32 %31, 0
  %33 = and i1 %20, %32
  br i1 %33, label %34, label %36

34:                                               ; preds = %30
  %35 = call i32 @putchar(i32 48)
  br label %36

36:                                               ; preds = %34, %30
  %37 = call i32 (i8*, ...) @printf(i8* nonnull dereferenceable(1) getelementptr inbounds ([4 x i8], [4 x i8]* @.str.3, i64 0, i64 0), i32 %13)
  br label %38

38:                                               ; preds = %36, %6
  call void @llvm.lifetime.end.p0i8(i64 4, i8* nonnull %2) #4
  ret void
}

; Function Attrs: argmemonly mustprogress nofree nosync nounwind willreturn
declare void @llvm.lifetime.start.p0i8(i64 immarg, i8* nocapture) #1

; Function Attrs: nofree nounwind
declare noundef i32 @__isoc99_scanf(i8* nocapture noundef readonly, ...) local_unnamed_addr #2

; Function Attrs: nofree nounwind
declare noundef i32 @printf(i8* nocapture noundef readonly, ...) local_unnamed_addr #2

; Function Attrs: argmemonly mustprogress nofree nosync nounwind willreturn
declare void @llvm.lifetime.end.p0i8(i64 immarg, i8* nocapture) #1

; Function Attrs: nofree nounwind
declare noundef i32 @putchar(i32 noundef) local_unnamed_addr #3


!llvm.module.flags = !{!0, !1, !2, !3}
!llvm.ident = !{!4}

!0 = !{i32 1, !"wchar_size", i32 4}
!1 = !{i32 7, !"PIC Level", i32 2}
!2 = !{i32 7, !"PIE Level", i32 2}
!3 = !{i32 7, !"uwtable", i32 1}
!4 = !{!"clang version 13.0.0"}
!5 = !{!6, !6, i64 0}
!6 = !{!"int", !7, i64 0}
!7 = !{!"omnipotent char", !8, i64 0}
!8 = !{!"Simple C/C++ TBAA"}
!9 = distinct !{!9, !10}
!10 = !{!"llvm.loop.mustprogress"}
